; ModuleID = '46/1988.c'
source_filename = "46/1988.c"
target datalayout = "e-m:e-p270:32:32-p271:32:32-p272:64:64-i64:64-f80:128-n8:16:32:64-S128"
target triple = "x86_64-pc-linux-gnu"

@.str = private unnamed_addr constant [5 x i8] c"%d%d\00", align 1
@.str.1 = private unnamed_addr constant [3 x i8] c"%d\00", align 1
@.str.2 = private unnamed_addr constant [4 x i8] c"%d\0A\00", align 1

; Function Attrs: noinline nounwind uwtable
define dso_local i32 @main() #0 {
  %1 = alloca i32, align 4
  %2 = alloca [100 x [100 x i32]], align 16
  %3 = alloca i32, align 4
  %4 = alloca i32, align 4
  %5 = alloca i32, align 4
  %6 = alloca i32, align 4
  %7 = alloca i32, align 4
  %8 = alloca i32, align 4
  %9 = alloca i32, align 4
  %10 = alloca i32, align 4
  %11 = alloca i32, align 4
  store i32 0, i32* %1, align 4
  store i32 0, i32* %5, align 4
  store i32 0, i32* %6, align 4
  store i32 0, i32* %7, align 4
  store i32 0, i32* %8, align 4
  store i32 0, i32* %9, align 4
  store i32 0, i32* %10, align 4
  store i32 0, i32* %11, align 4
  %12 = call i32 (i8*, ...) @__isoc99_scanf(i8* getelementptr inbounds ([5 x i8], [5 x i8]* @.str, i64 0, i64 0), i32* %3, i32* %4)
  %13 = load i32, i32* %3, align 4
  store i32 %13, i32* %10, align 4
  %14 = load i32, i32* %4, align 4
  store i32 %14, i32* %8, align 4
  br label %15

15:                                               ; preds = %36, %0
  %16 = load i32, i32* %5, align 4
  %17 = load i32, i32* %3, align 4
  %18 = icmp slt i32 %16, %17
  br i1 %18, label %19, label %39

19:                                               ; preds = %15
  store i32 0, i32* %6, align 4
  br label %20

20:                                               ; preds = %32, %19
  %21 = load i32, i32* %6, align 4
  %22 = load i32, i32* %4, align 4
  %23 = icmp slt i32 %21, %22
  br i1 %23, label %24, label %35

24:                                               ; preds = %20
  %25 = load i32, i32* %5, align 4
  %26 = sext i32 %25 to i64
  %27 = getelementptr inbounds [100 x [100 x i32]], [100 x [100 x i32]]* %2, i64 0, i64 %26
  %28 = load i32, i32* %6, align 4
  %29 = sext i32 %28 to i64
  %30 = getelementptr inbounds [100 x i32], [100 x i32]* %27, i64 0, i64 %29
  %31 = call i32 (i8*, ...) @__isoc99_scanf(i8* getelementptr inbounds ([3 x i8], [3 x i8]* @.str.1, i64 0, i64 0), i32* %30)
  br label %32

32:                                               ; preds = %24
  %33 = load i32, i32* %6, align 4
  %34 = add nsw i32 %33, 1
  store i32 %34, i32* %6, align 4
  br label %20

35:                                               ; preds = %20
  br label %36

36:                                               ; preds = %35
  %37 = load i32, i32* %5, align 4
  %38 = add nsw i32 %37, 1
  store i32 %38, i32* %5, align 4
  br label %15

39:                                               ; preds = %15
  store i32 0, i32* %5, align 4
  store i32 0, i32* %6, align 4
  br label %40

40:                                               ; preds = %156, %39
  br label %41

41:                                               ; preds = %56, %40
  %42 = load i32, i32* %6, align 4
  %43 = load i32, i32* %8, align 4
  %44 = icmp slt i32 %42, %43
  br i1 %44, label %45, label %59

45:                                               ; preds = %41
  %46 = load i32, i32* %5, align 4
  %47 = sext i32 %46 to i64
  %48 = getelementptr inbounds [100 x [100 x i32]], [100 x [100 x i32]]* %2, i64 0, i64 %47
  %49 = load i32, i32* %6, align 4
  %50 = sext i32 %49 to i64
  %51 = getelementptr inbounds [100 x i32], [100 x i32]* %48, i64 0, i64 %50
  %52 = load i32, i32* %51, align 4
  %53 = call i32 (i8*, ...) @printf(i8* getelementptr inbounds ([4 x i8], [4 x i8]* @.str.2, i64 0, i64 0), i32 %52)
  %54 = load i32, i32* %11, align 4
  %55 = add nsw i32 %54, 1
  store i32 %55, i32* %11, align 4
  br label %56

56:                                               ; preds = %45
  %57 = load i32, i32* %6, align 4
  %58 = add nsw i32 %57, 1
  store i32 %58, i32* %6, align 4
  br label %41

59:                                               ; preds = %41
  %60 = load i32, i32* %6, align 4
  %61 = add nsw i32 %60, -1
  store i32 %61, i32* %6, align 4
  %62 = load i32, i32* %11, align 4
  %63 = load i32, i32* %4, align 4
  %64 = load i32, i32* %3, align 4
  %65 = mul nsw i32 %63, %64
  %66 = icmp sge i32 %62, %65
  br i1 %66, label %67, label %68

67:                                               ; preds = %59
  br label %169

68:                                               ; preds = %59
  %69 = load i32, i32* %5, align 4
  %70 = add nsw i32 %69, 1
  store i32 %70, i32* %5, align 4
  br label %71

71:                                               ; preds = %86, %68
  %72 = load i32, i32* %5, align 4
  %73 = load i32, i32* %10, align 4
  %74 = icmp slt i32 %72, %73
  br i1 %74, label %75, label %89

75:                                               ; preds = %71
  %76 = load i32, i32* %5, align 4
  %77 = sext i32 %76 to i64
  %78 = getelementptr inbounds [100 x [100 x i32]], [100 x [100 x i32]]* %2, i64 0, i64 %77
  %79 = load i32, i32* %6, align 4
  %80 = sext i32 %79 to i64
  %81 = getelementptr inbounds [100 x i32], [100 x i32]* %78, i64 0, i64 %80
  %82 = load i32, i32* %81, align 4
  %83 = call i32 (i8*, ...) @printf(i8* getelementptr inbounds ([4 x i8], [4 x i8]* @.str.2, i64 0, i64 0), i32 %82)
  %84 = load i32, i32* %11, align 4
  %85 = add nsw i32 %84, 1
  store i32 %85, i32* %11, align 4
  br label %86

86:                                               ; preds = %75
  %87 = load i32, i32* %5, align 4
  %88 = add nsw i32 %87, 1
  store i32 %88, i32* %5, align 4
  br label %71

89:                                               ; preds = %71
  %90 = load i32, i32* %5, align 4
  %91 = add nsw i32 %90, -1
  store i32 %91, i32* %5, align 4
  %92 = load i32, i32* %11, align 4
  %93 = load i32, i32* %4, align 4
  %94 = load i32, i32* %3, align 4
  %95 = mul nsw i32 %93, %94
  %96 = icmp sge i32 %92, %95
  br i1 %96, label %97, label %98

97:                                               ; preds = %89
  br label %169

98:                                               ; preds = %89
  %99 = load i32, i32* %6, align 4
  %100 = add nsw i32 %99, -1
  store i32 %100, i32* %6, align 4
  br label %101

101:                                              ; preds = %116, %98
  %102 = load i32, i32* %6, align 4
  %103 = load i32, i32* %7, align 4
  %104 = icmp sge i32 %102, %103
  br i1 %104, label %105, label %119

105:                                              ; preds = %101
  %106 = load i32, i32* %5, align 4
  %107 = sext i32 %106 to i64
  %108 = getelementptr inbounds [100 x [100 x i32]], [100 x [100 x i32]]* %2, i64 0, i64 %107
  %109 = load i32, i32* %6, align 4
  %110 = sext i32 %109 to i64
  %111 = getelementptr inbounds [100 x i32], [100 x i32]* %108, i64 0, i64 %110
  %112 = load i32, i32* %111, align 4
  %113 = call i32 (i8*, ...) @printf(i8* getelementptr inbounds ([4 x i8], [4 x i8]* @.str.2, i64 0, i64 0), i32 %112)
  %114 = load i32, i32* %11, align 4
  %115 = add nsw i32 %114, 1
  store i32 %115, i32* %11, align 4
  br label %116

116:                                              ; preds = %105
  %117 = load i32, i32* %6, align 4
  %118 = add nsw i32 %117, -1
  store i32 %118, i32* %6, align 4
  br label %101

119:                                              ; preds = %101
  %120 = load i32, i32* %6, align 4
  %121 = add nsw i32 %120, 1
  store i32 %121, i32* %6, align 4
  %122 = load i32, i32* %11, align 4
  %123 = load i32, i32* %4, align 4
  %124 = load i32, i32* %3, align 4
  %125 = mul nsw i32 %123, %124
  %126 = icmp sge i32 %122, %125
  br i1 %126, label %127, label %128

127:                                              ; preds = %119
  br label %169

128:                                              ; preds = %119
  %129 = load i32, i32* %5, align 4
  %130 = add nsw i32 %129, -1
  store i32 %130, i32* %5, align 4
  br label %131

131:                                              ; preds = %146, %128
  %132 = load i32, i32* %5, align 4
  %133 = load i32, i32* %9, align 4
  %134 = icmp sgt i32 %132, %133
  br i1 %134, label %135, label %149

135:                                              ; preds = %131
  %136 = load i32, i32* %5, align 4
  %137 = sext i32 %136 to i64
  %138 = getelementptr inbounds [100 x [100 x i32]], [100 x [100 x i32]]* %2, i64 0, i64 %137
  %139 = load i32, i32* %6, align 4
  %140 = sext i32 %139 to i64
  %141 = getelementptr inbounds [100 x i32], [100 x i32]* %138, i64 0, i64 %140
  %142 = load i32, i32* %141, align 4
  %143 = call i32 (i8*, ...) @printf(i8* getelementptr inbounds ([4 x i8], [4 x i8]* @.str.2, i64 0, i64 0), i32 %142)
  %144 = load i32, i32* %11, align 4
  %145 = add nsw i32 %144, 1
  store i32 %145, i32* %11, align 4
  br label %146

146:                                              ; preds = %135
  %147 = load i32, i32* %5, align 4
  %148 = add nsw i32 %147, -1
  store i32 %148, i32* %5, align 4
  br label %131

149:                                              ; preds = %131
  %150 = load i32, i32* %11, align 4
  %151 = load i32, i32* %4, align 4
  %152 = load i32, i32* %3, align 4
  %153 = mul nsw i32 %151, %152
  %154 = icmp sge i32 %150, %153
  br i1 %154, label %155, label %156

155:                                              ; preds = %149
  br label %169

156:                                              ; preds = %149
  %157 = load i32, i32* %5, align 4
  %158 = add nsw i32 %157, 1
  store i32 %158, i32* %5, align 4
  %159 = load i32, i32* %6, align 4
  %160 = add nsw i32 %159, 1
  store i32 %160, i32* %6, align 4
  %161 = load i32, i32* %8, align 4
  %162 = add nsw i32 %161, -1
  store i32 %162, i32* %8, align 4
  %163 = load i32, i32* %7, align 4
  %164 = add nsw i32 %163, 1
  store i32 %164, i32* %7, align 4
  %165 = load i32, i32* %9, align 4
  %166 = add nsw i32 %165, 1
  store i32 %166, i32* %9, align 4
  %167 = load i32, i32* %10, align 4
  %168 = add nsw i32 %167, -1
  store i32 %168, i32* %10, align 4
  br label %40

169:                                              ; preds = %155, %127, %97, %67
  ret i32 0
}

declare dso_local i32 @__isoc99_scanf(i8*, ...) #1

declare dso_local i32 @printf(i8*, ...) #1


!llvm.module.flags = !{!0}
!llvm.ident = !{!1}

!0 = !{i32 1, !"wchar_size", i32 4}
!1 = !{!"clang version 10.0.0-4ubuntu1 "}
